ccopy_reg
_reconstructor
p1
(cargparse
Namespace
p2
c__builtin__
object
p3
NtRp4
(dp5
S'exclude'
p6
NsS'n_estimators'
p7
I30
sS'n_jobs'
p8
I20
sS'narrow_band'
p9
I01
sS'img'
p10
(lp11
S'/vol/bitbucket/kpk09/detector/data_resampled/1014_img.nii.gz'
p12
aS'/vol/bitbucket/kpk09/detector/data_resampled/1104_img.nii.gz'
p13
aS'/vol/bitbucket/kpk09/detector/data_resampled/1108_img.nii.gz'
p14
aS'/vol/bitbucket/kpk09/detector/data_resampled/1126_img.nii.gz'
p15
aS'/vol/bitbucket/kpk09/detector/data_resampled/1148_img.nii.gz'
p16
aS'/vol/bitbucket/kpk09/detector/data_resampled/1149_img.nii.gz'
p17
aS'/vol/bitbucket/kpk09/detector/data_resampled/1206_img.nii.gz'
p18
aS'/vol/bitbucket/kpk09/detector/data_resampled/1307_img.nii.gz'
p19
aS'/vol/bitbucket/kpk09/detector/data_resampled/1585_img.nii.gz'
p20
aS'/vol/bitbucket/kpk09/detector/data_resampled/1671_img.nii.gz'
p21
aS'/vol/bitbucket/kpk09/detector/data_resampled/1830_img.nii.gz'
p22
aS'/vol/bitbucket/kpk09/detector/data_resampled/1861_img.nii.gz'
p23
aS'/vol/bitbucket/kpk09/detector/data_resampled/1867_img.nii.gz'
p24
aS'/vol/bitbucket/kpk09/detector/data_resampled/1887_img.nii.gz'
p25
aS'/vol/bitbucket/kpk09/detector/data_resampled/1901_img.nii.gz'
p26
aS'/vol/bitbucket/kpk09/detector/data_resampled/1935_img.nii.gz'
p27
aS'/vol/bitbucket/kpk09/detector/data_resampled/1953_img.nii.gz'
p28
aS'/vol/bitbucket/kpk09/detector/data_resampled/1973_img.nii.gz'
p29
aS'/vol/bitbucket/kpk09/detector/data_resampled/2017_img.nii.gz'
p30
aS'/vol/bitbucket/kpk09/detector/data_resampled/2063_img.nii.gz'
p31
aS'/vol/bitbucket/kpk09/detector/data_resampled/2140_img.nii.gz'
p32
aS'/vol/bitbucket/kpk09/detector/data_resampled/2154_img.nii.gz'
p33
aS'/vol/bitbucket/kpk09/detector/data_resampled/2159_img.nii.gz'
p34
aS'/vol/bitbucket/kpk09/detector/data_resampled/2163_img.nii.gz'
p35
aS'/vol/bitbucket/kpk09/detector/data_resampled/2180_img.nii.gz'
p36
aS'/vol/bitbucket/kpk09/detector/data_resampled/2220_img.nii.gz'
p37
aS'/vol/bitbucket/kpk09/detector/data_resampled/2237_img.nii.gz'
p38
aS'/vol/bitbucket/kpk09/detector/data_resampled/2248_img.nii.gz'
p39
aS'/vol/bitbucket/kpk09/detector/data_resampled/2262_img.nii.gz'
p40
aS'/vol/bitbucket/kpk09/detector/data_resampled/2265_img.nii.gz'
p41
aS'/vol/bitbucket/kpk09/detector/data_resampled/2283_img.nii.gz'
p42
aS'/vol/bitbucket/kpk09/detector/data_resampled/2284_img.nii.gz'
p43
aS'/vol/bitbucket/kpk09/detector/data_resampled/2293_img.nii.gz'
p44
aS'/vol/bitbucket/kpk09/detector/data_resampled/2312_img.nii.gz'
p45
aS'/vol/bitbucket/kpk09/detector/data_resampled/2313_img.nii.gz'
p46
aS'/vol/bitbucket/kpk09/detector/data_resampled/2316_img.nii.gz'
p47
aS'/vol/bitbucket/kpk09/detector/data_resampled/2337_img.nii.gz'
p48
aS'/vol/bitbucket/kpk09/detector/data_resampled/2350_img.nii.gz'
p49
aS'/vol/bitbucket/kpk09/detector/data_resampled/2351_img.nii.gz'
p50
aS'/vol/bitbucket/kpk09/detector/data_resampled/2381_img.nii.gz'
p51
aS'/vol/bitbucket/kpk09/detector/data_resampled/2396_img.nii.gz'
p52
aS'/vol/bitbucket/kpk09/detector/data_resampled/2401_img.nii.gz'
p53
aS'/vol/bitbucket/kpk09/detector/data_resampled/2429_img.nii.gz'
p54
aS'/vol/bitbucket/kpk09/detector/data_resampled/2438_img.nii.gz'
p55
aS'/vol/bitbucket/kpk09/detector/data_resampled/2481_img.nii.gz'
p56
aS'/vol/bitbucket/kpk09/detector/data_resampled/2494_img.nii.gz'
p57
aS'/vol/bitbucket/kpk09/detector/data_resampled/2508_img.nii.gz'
p58
aS'/vol/bitbucket/kpk09/detector/data_resampled/2540_img.nii.gz'
p59
aS'/vol/bitbucket/kpk09/detector/data_resampled/2557_img.nii.gz'
p60
aS'/vol/bitbucket/kpk09/detector/data_resampled/2560_img.nii.gz'
p61
aS'/vol/bitbucket/kpk09/detector/data_resampled/577_img.nii.gz'
p62
aS'/vol/bitbucket/kpk09/detector/data_resampled/596_img.nii.gz'
p63
aS'/vol/bitbucket/kpk09/detector/data_resampled/784_img.nii.gz'
p64
aS'/vol/bitbucket/kpk09/detector/data_resampled/932_img.nii.gz'
p65
asS'factor_background'
p66
F1
sS'brain_jitter'
p67
I10
sS'o_size'
p68
I20
sS'n_tests'
p69
I100
sS'seg'
p70
(lp71
S'/vol/bitbucket/kpk09/detector/data_resampled/1014_seg.nii.gz'
p72
aS'/vol/bitbucket/kpk09/detector/data_resampled/1104_seg.nii.gz'
p73
aS'/vol/bitbucket/kpk09/detector/data_resampled/1108_seg.nii.gz'
p74
aS'/vol/bitbucket/kpk09/detector/data_resampled/1126_seg.nii.gz'
p75
aS'/vol/bitbucket/kpk09/detector/data_resampled/1148_seg.nii.gz'
p76
aS'/vol/bitbucket/kpk09/detector/data_resampled/1149_seg.nii.gz'
p77
aS'/vol/bitbucket/kpk09/detector/data_resampled/1206_seg.nii.gz'
p78
aS'/vol/bitbucket/kpk09/detector/data_resampled/1307_seg.nii.gz'
p79
aS'/vol/bitbucket/kpk09/detector/data_resampled/1585_seg.nii.gz'
p80
aS'/vol/bitbucket/kpk09/detector/data_resampled/1671_seg.nii.gz'
p81
aS'/vol/bitbucket/kpk09/detector/data_resampled/1830_seg.nii.gz'
p82
aS'/vol/bitbucket/kpk09/detector/data_resampled/1861_seg.nii.gz'
p83
aS'/vol/bitbucket/kpk09/detector/data_resampled/1867_seg.nii.gz'
p84
aS'/vol/bitbucket/kpk09/detector/data_resampled/1887_seg.nii.gz'
p85
aS'/vol/bitbucket/kpk09/detector/data_resampled/1901_seg.nii.gz'
p86
aS'/vol/bitbucket/kpk09/detector/data_resampled/1935_seg.nii.gz'
p87
aS'/vol/bitbucket/kpk09/detector/data_resampled/1953_seg.nii.gz'
p88
aS'/vol/bitbucket/kpk09/detector/data_resampled/1973_seg.nii.gz'
p89
aS'/vol/bitbucket/kpk09/detector/data_resampled/2017_seg.nii.gz'
p90
aS'/vol/bitbucket/kpk09/detector/data_resampled/2063_seg.nii.gz'
p91
aS'/vol/bitbucket/kpk09/detector/data_resampled/2140_seg.nii.gz'
p92
aS'/vol/bitbucket/kpk09/detector/data_resampled/2154_seg.nii.gz'
p93
aS'/vol/bitbucket/kpk09/detector/data_resampled/2159_seg.nii.gz'
p94
aS'/vol/bitbucket/kpk09/detector/data_resampled/2163_seg.nii.gz'
p95
aS'/vol/bitbucket/kpk09/detector/data_resampled/2180_seg.nii.gz'
p96
aS'/vol/bitbucket/kpk09/detector/data_resampled/2220_seg.nii.gz'
p97
aS'/vol/bitbucket/kpk09/detector/data_resampled/2237_seg.nii.gz'
p98
aS'/vol/bitbucket/kpk09/detector/data_resampled/2248_seg.nii.gz'
p99
aS'/vol/bitbucket/kpk09/detector/data_resampled/2262_seg.nii.gz'
p100
aS'/vol/bitbucket/kpk09/detector/data_resampled/2265_seg.nii.gz'
p101
aS'/vol/bitbucket/kpk09/detector/data_resampled/2283_seg.nii.gz'
p102
aS'/vol/bitbucket/kpk09/detector/data_resampled/2284_seg.nii.gz'
p103
aS'/vol/bitbucket/kpk09/detector/data_resampled/2293_seg.nii.gz'
p104
aS'/vol/bitbucket/kpk09/detector/data_resampled/2312_seg.nii.gz'
p105
aS'/vol/bitbucket/kpk09/detector/data_resampled/2313_seg.nii.gz'
p106
aS'/vol/bitbucket/kpk09/detector/data_resampled/2316_seg.nii.gz'
p107
aS'/vol/bitbucket/kpk09/detector/data_resampled/2337_seg.nii.gz'
p108
aS'/vol/bitbucket/kpk09/detector/data_resampled/2350_seg.nii.gz'
p109
aS'/vol/bitbucket/kpk09/detector/data_resampled/2351_seg.nii.gz'
p110
aS'/vol/bitbucket/kpk09/detector/data_resampled/2381_seg.nii.gz'
p111
aS'/vol/bitbucket/kpk09/detector/data_resampled/2396_seg.nii.gz'
p112
aS'/vol/bitbucket/kpk09/detector/data_resampled/2401_seg.nii.gz'
p113
aS'/vol/bitbucket/kpk09/detector/data_resampled/2429_seg.nii.gz'
p114
aS'/vol/bitbucket/kpk09/detector/data_resampled/2438_seg.nii.gz'
p115
aS'/vol/bitbucket/kpk09/detector/data_resampled/2481_seg.nii.gz'
p116
aS'/vol/bitbucket/kpk09/detector/data_resampled/2494_seg.nii.gz'
p117
aS'/vol/bitbucket/kpk09/detector/data_resampled/2508_seg.nii.gz'
p118
aS'/vol/bitbucket/kpk09/detector/data_resampled/2540_seg.nii.gz'
p119
aS'/vol/bitbucket/kpk09/detector/data_resampled/2557_seg.nii.gz'
p120
aS'/vol/bitbucket/kpk09/detector/data_resampled/2560_seg.nii.gz'
p121
aS'/vol/bitbucket/kpk09/detector/data_resampled/577_seg.nii.gz'
p122
aS'/vol/bitbucket/kpk09/detector/data_resampled/596_seg.nii.gz'
p123
aS'/vol/bitbucket/kpk09/detector/data_resampled/784_seg.nii.gz'
p124
aS'/vol/bitbucket/kpk09/detector/data_resampled/932_seg.nii.gz'
p125
asS'debug'
p126
I00
sS'lung_jitter'
p127
I5
sS'heart_only'
p128
I00
sS'not_centered'
p129
I00
sS'n_samples'
p130
I1000
sS'max_features'
p131
F0.10000000000000001
sS'heart_jitter'
p132
I5
sS'output_folder'
p133
S'/vol/vipdata/data/fetal_data/OUTPUT/stage2_fast/2379'
p134
sS'max_depth'
p135
I20
sS'd_size'
p136
I15
sb.